; Function Attrs: noreturn nounwind sspstrong uwtable
define dso_local void @cpu_loop_exit_sigsegv(ptr noundef %cpu, i64 noundef %addr, i32 noundef %access_type, i1 noundef zeroext %maperr, i64 noundef %ra) local_unnamed_addr #11 {
entry:
  %call.i = tail call ptr @object_get_class(ptr noundef %cpu) #16
  %call1.i = tail call ptr @object_class_dynamic_cast_assert(ptr noundef %call.i, ptr noundef nonnull @.str.8, ptr noundef nonnull @.str.9, i32 noundef 64, ptr noundef nonnull @__func__.CPU_GET_CLASS) #16
  %tcg_ops1 = getelementptr inbounds nuw i8, ptr %call1.i, i64 328
  %0 = load ptr, ptr %tcg_ops1, align 8
  %record_sigsegv = getelementptr inbounds nuw i8, ptr %0, i64 56
  %1 = load ptr, ptr %record_sigsegv, align 8
  %tobool.not = icmp eq ptr %1, null
  br i1 %tobool.not, label %if.end, label %if.then

if.then:                                          ; preds = %entry
  tail call void %1(ptr noundef %cpu, i64 noundef %addr, i32 noundef %access_type, i1 noundef zeroext %maperr, i64 noundef %ra) #16
  br label %if.end

if.end:                                           ; preds = %if.then, %entry
  %cond = select i1 %maperr, i32 1, i32 2
  tail call void @force_sig_fault(i32 noundef 11, i32 noundef %cond, i64 noundef %addr)
  %exception_index = getelementptr inbounds nuw i8, ptr %cpu, i64 728
  store i32 65536, ptr %exception_index, align 8
  tail call void @cpu_loop_exit_restore(ptr noundef %cpu, i64 noundef %ra) #17
  unreachable
}